target datalayout = "e-m:e-p270:32:32-p271:32:32-p272:64:64-i64:64-i128:128-f80:128-n8:16:32:64-S128"
target triple = "x86_64-pc-linux-gnu"

%struct.CSzCoderInfo = type { i32, i32, i64, %struct.CBuf }
%struct.CBuf = type { ptr, i64 }
%struct.CSzFolder = type { ptr, ptr, ptr, ptr, i32, i32, i32, i32, i32, i32 }
%struct.ISzAlloc = type { ptr, ptr }
%struct.CSzAr = type { ptr, ptr, ptr, ptr, ptr, i32, i32, i32 }

; Function Attrs: nounwind uwtable
define void @SzCoderInfo_Init(ptr noundef %0) #0 {
  %2 = alloca ptr, align 8
  store ptr %0, ptr %2, align 8
  %3 = load ptr, ptr %2, align 8
  %4 = getelementptr inbounds %struct.CSzCoderInfo, ptr %3, i32 0, i32 3
  call void @Buf_Init(ptr noundef %4)
  ret void
}

; Function Attrs: nounwind uwtable
define void @SzFolder_Init(ptr noundef %0) #0 {
  %2 = alloca ptr, align 8
  store ptr %0, ptr %2, align 8
  %3 = load ptr, ptr %2, align 8
  %4 = getelementptr inbounds %struct.CSzFolder, ptr %3, i32 0, i32 0
  store ptr null, ptr %4, align 8
  %5 = load ptr, ptr %2, align 8
  %6 = getelementptr inbounds %struct.CSzFolder, ptr %5, i32 0, i32 1
  store ptr null, ptr %6, align 8
  %7 = load ptr, ptr %2, align 8
  %8 = getelementptr inbounds %struct.CSzFolder, ptr %7, i32 0, i32 2
  store ptr null, ptr %8, align 8
  %9 = load ptr, ptr %2, align 8
  %10 = getelementptr inbounds %struct.CSzFolder, ptr %9, i32 0, i32 3
  store ptr null, ptr %10, align 8
  %11 = load ptr, ptr %2, align 8
  %12 = getelementptr inbounds %struct.CSzFolder, ptr %11, i32 0, i32 4
  store i32 0, ptr %12, align 8
  %13 = load ptr, ptr %2, align 8
  %14 = getelementptr inbounds %struct.CSzFolder, ptr %13, i32 0, i32 5
  store i32 0, ptr %14, align 4
  %15 = load ptr, ptr %2, align 8
  %16 = getelementptr inbounds %struct.CSzFolder, ptr %15, i32 0, i32 6
  store i32 0, ptr %16, align 8
  %17 = load ptr, ptr %2, align 8
  %18 = getelementptr inbounds %struct.CSzFolder, ptr %17, i32 0, i32 7
  store i32 0, ptr %18, align 4
  %19 = load ptr, ptr %2, align 8
  %20 = getelementptr inbounds %struct.CSzFolder, ptr %19, i32 0, i32 8
  store i32 0, ptr %20, align 8
  %21 = load ptr, ptr %2, align 8
  %22 = getelementptr inbounds %struct.CSzFolder, ptr %21, i32 0, i32 9
  store i32 0, ptr %22, align 4
  ret void
}

; Function Attrs: nounwind uwtable
define void @SzCoderInfo_Free(ptr noundef %0, ptr noundef %1) #0 {
  %3 = alloca ptr, align 8
  %4 = alloca ptr, align 8
  store ptr %0, ptr %3, align 8
  store ptr %1, ptr %4, align 8
  %5 = load ptr, ptr %3, align 8
  %6 = getelementptr inbounds %struct.CSzCoderInfo, ptr %5, i32 0, i32 3
  %7 = load ptr, ptr %4, align 8
  call void @Buf_Free(ptr noundef %6, ptr noundef %7)
  %8 = load ptr, ptr %3, align 8
  call void @SzCoderInfo_Init(ptr noundef %8)
  ret void
}

; Function Attrs: nounwind uwtable
define void @SzAr_Init(ptr noundef %0) #0 {
  %2 = alloca ptr, align 8
  store ptr %0, ptr %2, align 8
  %3 = load ptr, ptr %2, align 8
  %4 = getelementptr inbounds %struct.CSzAr, ptr %3, i32 0, i32 0
  store ptr null, ptr %4, align 8
  %5 = load ptr, ptr %2, align 8
  %6 = getelementptr inbounds %struct.CSzAr, ptr %5, i32 0, i32 1
  store ptr null, ptr %6, align 8
  %7 = load ptr, ptr %2, align 8
  %8 = getelementptr inbounds %struct.CSzAr, ptr %7, i32 0, i32 2
  store ptr null, ptr %8, align 8
  %9 = load ptr, ptr %2, align 8
  %10 = getelementptr inbounds %struct.CSzAr, ptr %9, i32 0, i32 3
  store ptr null, ptr %10, align 8
  %11 = load ptr, ptr %2, align 8
  %12 = getelementptr inbounds %struct.CSzAr, ptr %11, i32 0, i32 4
  store ptr null, ptr %12, align 8
  %13 = load ptr, ptr %2, align 8
  %14 = getelementptr inbounds %struct.CSzAr, ptr %13, i32 0, i32 5
  store i32 0, ptr %14, align 8
  %15 = load ptr, ptr %2, align 8
  %16 = getelementptr inbounds %struct.CSzAr, ptr %15, i32 0, i32 6
  store i32 0, ptr %16, align 4
  %17 = load ptr, ptr %2, align 8
  %18 = getelementptr inbounds %struct.CSzAr, ptr %17, i32 0, i32 7
  store i32 0, ptr %18, align 8
  ret void
}

; Function Attrs: nounwind uwtable
define void @SzFolder_Free(ptr noundef %0, ptr noundef %1) #0 {
  %3 = alloca ptr, align 8
  %4 = alloca ptr, align 8
  %5 = alloca i32, align 4
  store ptr %0, ptr %3, align 8
  store ptr %1, ptr %4, align 8
  %6 = load ptr, ptr %3, align 8
  %7 = getelementptr inbounds %struct.CSzFolder, ptr %6, i32 0, i32 0
  %8 = load ptr, ptr %7, align 8
  %9 = icmp ne ptr %8, null
  br i1 %9, label %10, label %29

10:                                               ; preds = %2
  store i32 0, ptr %5, align 4
  br label %11

11:                                               ; preds = %25, %10
  %12 = load i32, ptr %5, align 4
  %13 = load ptr, ptr %3, align 8
  %14 = getelementptr inbounds %struct.CSzFolder, ptr %13, i32 0, i32 4
  %15 = load i32, ptr %14, align 8
  %16 = icmp ult i32 %12, %15
  br i1 %16, label %17, label %28

17:                                               ; preds = %11
  %18 = load ptr, ptr %3, align 8
  %19 = getelementptr inbounds %struct.CSzFolder, ptr %18, i32 0, i32 0
  %20 = load ptr, ptr %19, align 8
  %21 = load i32, ptr %5, align 4
  %22 = zext i32 %21 to i64
  %23 = getelementptr inbounds %struct.CSzCoderInfo, ptr %20, i64 %22
  %24 = load ptr, ptr %4, align 8
  call void @SzCoderInfo_Free(ptr noundef %23, ptr noundef %24)
  br label %25

25:                                               ; preds = %17
  %26 = load i32, ptr %5, align 4
  %27 = add i32 %26, 1
  store i32 %27, ptr %5, align 4
  br label %11

28:                                               ; preds = %11
  br label %29

29:                                               ; preds = %28, %2
  %30 = load ptr, ptr %4, align 8
  %31 = getelementptr inbounds %struct.ISzAlloc, ptr %30, i32 0, i32 1
  %32 = load ptr, ptr %31, align 8
  %33 = load ptr, ptr %4, align 8
  %34 = load ptr, ptr %3, align 8
  %35 = getelementptr inbounds %struct.CSzFolder, ptr %34, i32 0, i32 0
  %36 = load ptr, ptr %35, align 8
  call void %32(ptr noundef %33, ptr noundef %36)
  %37 = load ptr, ptr %4, align 8
  %38 = getelementptr inbounds %struct.ISzAlloc, ptr %37, i32 0, i32 1
  %39 = load ptr, ptr %38, align 8
  %40 = load ptr, ptr %4, align 8
  %41 = load ptr, ptr %3, align 8
  %42 = getelementptr inbounds %struct.CSzFolder, ptr %41, i32 0, i32 1
  %43 = load ptr, ptr %42, align 8
  call void %39(ptr noundef %40, ptr noundef %43)
  %44 = load ptr, ptr %4, align 8
  %45 = getelementptr inbounds %struct.ISzAlloc, ptr %44, i32 0, i32 1
  %46 = load ptr, ptr %45, align 8
  %47 = load ptr, ptr %4, align 8
  %48 = load ptr, ptr %3, align 8
  %49 = getelementptr inbounds %struct.CSzFolder, ptr %48, i32 0, i32 2
  %50 = load ptr, ptr %49, align 8
  call void %46(ptr noundef %47, ptr noundef %50)
  %51 = load ptr, ptr %4, align 8
  %52 = getelementptr inbounds %struct.ISzAlloc, ptr %51, i32 0, i32 1
  %53 = load ptr, ptr %52, align 8
  %54 = load ptr, ptr %4, align 8
  %55 = load ptr, ptr %3, align 8
  %56 = getelementptr inbounds %struct.CSzFolder, ptr %55, i32 0, i32 3
  %57 = load ptr, ptr %56, align 8
  call void %53(ptr noundef %54, ptr noundef %57)
  %58 = load ptr, ptr %3, align 8
  call void @SzFolder_Init(ptr noundef %58)
  ret void
}

; Function Attrs: nounwind uwtable
define void @SzAr_Free(ptr noundef %0, ptr noundef %1) #0 {
  %3 = alloca ptr, align 8
  %4 = alloca ptr, align 8
  %5 = alloca i32, align 4
  store ptr %0, ptr %3, align 8
  store ptr %1, ptr %4, align 8
  %6 = load ptr, ptr %3, align 8
  %7 = getelementptr inbounds %struct.CSzAr, ptr %6, i32 0, i32 3
  %8 = load ptr, ptr %7, align 8
  %9 = icmp ne ptr %8, null
  br i1 %9, label %10, label %29

10:                                               ; preds = %2
  store i32 0, ptr %5, align 4
  br label %11

11:                                               ; preds = %25, %10
  %12 = load i32, ptr %5, align 4
  %13 = load ptr, ptr %3, align 8
  %14 = getelementptr inbounds %struct.CSzAr, ptr %13, i32 0, i32 6
  %15 = load i32, ptr %14, align 4
  %16 = icmp ult i32 %12, %15
  br i1 %16, label %17, label %28

17:                                               ; preds = %11
  %18 = load ptr, ptr %3, align 8
  %19 = getelementptr inbounds %struct.CSzAr, ptr %18, i32 0, i32 3
  %20 = load ptr, ptr %19, align 8
  %21 = load i32, ptr %5, align 4
  %22 = zext i32 %21 to i64
  %23 = getelementptr inbounds %struct.CSzFolder, ptr %20, i64 %22
  %24 = load ptr, ptr %4, align 8
  call void @SzFolder_Free(ptr noundef %23, ptr noundef %24)
  br label %25

25:                                               ; preds = %17
  %26 = load i32, ptr %5, align 4
  %27 = add i32 %26, 1
  store i32 %27, ptr %5, align 4
  br label %11

28:                                               ; preds = %11
  br label %29

29:                                               ; preds = %28, %2
  %30 = load ptr, ptr %4, align 8
  %31 = getelementptr inbounds %struct.ISzAlloc, ptr %30, i32 0, i32 1
  %32 = load ptr, ptr %31, align 8
  %33 = load ptr, ptr %4, align 8
  %34 = load ptr, ptr %3, align 8
  %35 = getelementptr inbounds %struct.CSzAr, ptr %34, i32 0, i32 0
  %36 = load ptr, ptr %35, align 8
  call void %32(ptr noundef %33, ptr noundef %36)
  %37 = load ptr, ptr %4, align 8
  %38 = getelementptr inbounds %struct.ISzAlloc, ptr %37, i32 0, i32 1
  %39 = load ptr, ptr %38, align 8
  %40 = load ptr, ptr %4, align 8
  %41 = load ptr, ptr %3, align 8
  %42 = getelementptr inbounds %struct.CSzAr, ptr %41, i32 0, i32 1
  %43 = load ptr, ptr %42, align 8
  call void %39(ptr noundef %40, ptr noundef %43)
  %44 = load ptr, ptr %4, align 8
  %45 = getelementptr inbounds %struct.ISzAlloc, ptr %44, i32 0, i32 1
  %46 = load ptr, ptr %45, align 8
  %47 = load ptr, ptr %4, align 8
  %48 = load ptr, ptr %3, align 8
  %49 = getelementptr inbounds %struct.CSzAr, ptr %48, i32 0, i32 2
  %50 = load ptr, ptr %49, align 8
  call void %46(ptr noundef %47, ptr noundef %50)
  %51 = load ptr, ptr %4, align 8
  %52 = getelementptr inbounds %struct.ISzAlloc, ptr %51, i32 0, i32 1
  %53 = load ptr, ptr %52, align 8
  %54 = load ptr, ptr %4, align 8
  %55 = load ptr, ptr %3, align 8
  %56 = getelementptr inbounds %struct.CSzAr, ptr %55, i32 0, i32 3
  %57 = load ptr, ptr %56, align 8
  call void %53(ptr noundef %54, ptr noundef %57)
  %58 = load ptr, ptr %4, align 8
  %59 = getelementptr inbounds %struct.ISzAlloc, ptr %58, i32 0, i32 1
  %60 = load ptr, ptr %59, align 8
  %61 = load ptr, ptr %4, align 8
  %62 = load ptr, ptr %3, align 8
  %63 = getelementptr inbounds %struct.CSzAr, ptr %62, i32 0, i32 4
  %64 = load ptr, ptr %63, align 8
  call void %60(ptr noundef %61, ptr noundef %64)
  %65 = load ptr, ptr %3, align 8
  call void @SzAr_Init(ptr noundef %65)
  ret void
}