; Function Attrs: nounwind uwtable
define void @SzAr_Free(ptr noundef captures(none) %0, ptr noundef %1) local_unnamed_addr #0 {
  %3 = getelementptr inbounds nuw i8, ptr %0, i64 24
  %4 = load ptr, ptr %3, align 8
  %.not = icmp eq ptr %4, null
  br i1 %.not, label %.loopexit, label %.preheader

.preheader:                                       ; preds = %2
  %5 = getelementptr inbounds nuw i8, ptr %0, i64 44
  %6 = load i32, ptr %5, align 4
  %.not23 = icmp eq i32 %6, 0
  br i1 %.not23, label %.loopexit, label %.lr.ph

.lr.ph:                                           ; preds = %.preheader
  %7 = getelementptr inbounds nuw i8, ptr %1, i64 8
  br label %8

8:                                                ; preds = %.lr.ph, %SzFolder_Free.exit
  %indvars.iv = phi i64 [ 0, %.lr.ph ], [ %indvars.iv.next, %SzFolder_Free.exit ]
  %9 = load ptr, ptr %3, align 8
  %10 = getelementptr inbounds nuw %struct.CSzFolder, ptr %9, i64 %indvars.iv
  %11 = load ptr, ptr %10, align 8
  %.not.i = icmp eq ptr %11, null
  br i1 %.not.i, label %SzFolder_Free.exit, label %.preheader.i

.preheader.i:                                     ; preds = %8
  %12 = getelementptr inbounds nuw i8, ptr %10, i64 32
  %13 = load i32, ptr %12, align 8
  %.not20.i = icmp eq i32 %13, 0
  br i1 %.not20.i, label %SzFolder_Free.exit, label %.lr.ph.i

.lr.ph.i:                                         ; preds = %.preheader.i, %.lr.ph.i
  %indvars.iv.i = phi i64 [ %indvars.iv.next.i, %.lr.ph.i ], [ 0, %.preheader.i ]
  %14 = load ptr, ptr %10, align 8
  %15 = getelementptr inbounds nuw %struct.CSzCoderInfo, ptr %14, i64 %indvars.iv.i, i32 3
  tail call void @Buf_Free(ptr noundef nonnull %15, ptr noundef %1) #11
  tail call void @Buf_Init(ptr noundef nonnull %15) #11
  %indvars.iv.next.i = add nuw nsw i64 %indvars.iv.i, 1
  %16 = load i32, ptr %12, align 8
  %17 = zext i32 %16 to i64
  %18 = icmp samesign ult i64 %indvars.iv.next.i, %17
  br i1 %18, label %.lr.ph.i, label %.loopexit.loopexit.i

.loopexit.loopexit.i:                             ; preds = %.lr.ph.i
  %.pre.i = load ptr, ptr %10, align 8
  br label %SzFolder_Free.exit

SzFolder_Free.exit:                               ; preds = %8, %.preheader.i, %.loopexit.loopexit.i
  %19 = phi ptr [ %.pre.i, %.loopexit.loopexit.i ], [ %11, %.preheader.i ], [ null, %8 ]
  %20 = load ptr, ptr %7, align 8
  tail call void %20(ptr noundef %1, ptr noundef %19) #11
  %21 = load ptr, ptr %7, align 8
  %22 = getelementptr inbounds nuw i8, ptr %10, i64 8
  %23 = load ptr, ptr %22, align 8
  tail call void %21(ptr noundef %1, ptr noundef %23) #11
  %24 = load ptr, ptr %7, align 8
  %25 = getelementptr inbounds nuw i8, ptr %10, i64 16
  %26 = load ptr, ptr %25, align 8
  tail call void %24(ptr noundef %1, ptr noundef %26) #11
  %27 = load ptr, ptr %7, align 8
  %28 = getelementptr inbounds nuw i8, ptr %10, i64 24
  %29 = load ptr, ptr %28, align 8
  tail call void %27(ptr noundef %1, ptr noundef %29) #11
  tail call void @llvm.memset.p0.i64(ptr noundef nonnull align 8 dereferenceable(56) %10, i8 0, i64 56, i1 false)
  %indvars.iv.next = add nuw nsw i64 %indvars.iv, 1
  %30 = load i32, ptr %5, align 4
  %31 = zext i32 %30 to i64
  %32 = icmp samesign ult i64 %indvars.iv.next, %31
  br i1 %32, label %8, label %.loopexit

.loopexit:                                        ; preds = %SzFolder_Free.exit, %.preheader, %2
  %33 = getelementptr inbounds nuw i8, ptr %1, i64 8
  %34 = load ptr, ptr %33, align 8
  %35 = load ptr, ptr %0, align 8
  tail call void %34(ptr noundef %1, ptr noundef %35) #11
  %36 = load ptr, ptr %33, align 8
  %37 = getelementptr inbounds nuw i8, ptr %0, i64 8
  %38 = load ptr, ptr %37, align 8
  tail call void %36(ptr noundef %1, ptr noundef %38) #11
  %39 = load ptr, ptr %33, align 8
  %40 = getelementptr inbounds nuw i8, ptr %0, i64 16
  %41 = load ptr, ptr %40, align 8
  tail call void %39(ptr noundef %1, ptr noundef %41) #11
  %42 = load ptr, ptr %33, align 8
  %43 = load ptr, ptr %3, align 8
  tail call void %42(ptr noundef %1, ptr noundef %43) #11
  %44 = load ptr, ptr %33, align 8
  %45 = getelementptr inbounds nuw i8, ptr %0, i64 32
  %46 = load ptr, ptr %45, align 8
  tail call void %44(ptr noundef %1, ptr noundef %46) #11
  tail call void @llvm.memset.p0.i64(ptr noundef nonnull align 8 dereferenceable(52) %0, i8 0, i64 52, i1 false)
  ret void
}